; Function Attrs: nounwind uwtable
define dso_local i32 @lua_lessthan(ptr noundef %0, i32 noundef %1, i32 noundef %2) local_unnamed_addr #2 {
  %4 = icmp sgt i32 %1, 0
  br i1 %4, label %5, label %13

5:                                                ; preds = %3
  %6 = getelementptr inbounds nuw i8, ptr %0, i64 24
  %7 = load ptr, ptr %6, align 8, !tbaa !21
  %8 = zext nneg i32 %1 to i64
  %9 = getelementptr %struct.lua_TValue, ptr %7, i64 %8
  %10 = getelementptr i8, ptr %9, i64 -16
  %11 = getelementptr inbounds nuw i8, ptr %0, i64 16
  %12 = load ptr, ptr %11, align 8, !tbaa !4
  %.not28.i = icmp ult ptr %10, %12
  %.luaO_nilobject_.i = select i1 %.not28.i, ptr %10, ptr @luaO_nilobject_
  br label %index2adr.exit

13:                                               ; preds = %3
  %14 = icmp sgt i32 %1, -10000
  br i1 %14, label %15, label %20

15:                                               ; preds = %13
  %16 = getelementptr inbounds nuw i8, ptr %0, i64 16
  %17 = load ptr, ptr %16, align 8, !tbaa !4
  %18 = sext i32 %1 to i64
  %19 = getelementptr inbounds %struct.lua_TValue, ptr %17, i64 %18
  br label %index2adr.exit

20:                                               ; preds = %13
  switch i32 %1, label %37 [
    i32 -10000, label %21
    i32 -10001, label %25
    i32 -10002, label %35
  ]

21:                                               ; preds = %20
  %22 = getelementptr inbounds nuw i8, ptr %0, i64 32
  %23 = load ptr, ptr %22, align 8, !tbaa !29
  %24 = getelementptr inbounds nuw i8, ptr %23, i64 160
  br label %index2adr.exit

25:                                               ; preds = %20
  %26 = getelementptr inbounds nuw i8, ptr %0, i64 40
  %27 = load ptr, ptr %26, align 8, !tbaa !23
  %28 = getelementptr inbounds nuw i8, ptr %27, i64 8
  %29 = load ptr, ptr %28, align 8, !tbaa !41
  %30 = load ptr, ptr %29, align 8, !tbaa !19
  %31 = getelementptr inbounds nuw i8, ptr %0, i64 136
  %32 = getelementptr inbounds nuw i8, ptr %30, i64 24
  %33 = load ptr, ptr %32, align 8, !tbaa !19
  store ptr %33, ptr %31, align 8, !tbaa !19
  %34 = getelementptr inbounds nuw i8, ptr %0, i64 144
  store i32 5, ptr %34, align 8, !tbaa !20
  br label %index2adr.exit

35:                                               ; preds = %20
  %36 = getelementptr inbounds nuw i8, ptr %0, i64 120
  br label %index2adr.exit

37:                                               ; preds = %20
  %38 = getelementptr inbounds nuw i8, ptr %0, i64 40
  %39 = load ptr, ptr %38, align 8, !tbaa !23
  %40 = getelementptr inbounds nuw i8, ptr %39, i64 8
  %41 = load ptr, ptr %40, align 8, !tbaa !41
  %42 = load ptr, ptr %41, align 8, !tbaa !19
  %43 = sub nuw nsw i32 -10002, %1
  %44 = getelementptr inbounds nuw i8, ptr %42, i64 11
  %45 = load i8, ptr %44, align 1, !tbaa !19
  %46 = zext i8 %45 to i32
  %.not.i = icmp samesign ugt i32 %43, %46
  %47 = getelementptr inbounds nuw i8, ptr %42, i64 40
  %48 = sub nuw nsw i32 -10003, %1
  %49 = zext nneg i32 %48 to i64
  %50 = getelementptr inbounds nuw [1 x %struct.lua_TValue], ptr %47, i64 0, i64 %49
  %51 = select i1 %.not.i, ptr @luaO_nilobject_, ptr %50
  br label %index2adr.exit

index2adr.exit:                                   ; preds = %5, %15, %21, %25, %35, %37
  %.1.i = phi ptr [ %.luaO_nilobject_.i, %5 ], [ %19, %15 ], [ %51, %37 ], [ %36, %35 ], [ %31, %25 ], [ %24, %21 ]
  %52 = icmp sgt i32 %2, 0
  br i1 %52, label %53, label %61

53:                                               ; preds = %index2adr.exit
  %54 = getelementptr inbounds nuw i8, ptr %0, i64 24
  %55 = load ptr, ptr %54, align 8, !tbaa !21
  %56 = zext nneg i32 %2 to i64
  %57 = getelementptr %struct.lua_TValue, ptr %55, i64 %56
  %58 = getelementptr i8, ptr %57, i64 -16
  %59 = getelementptr inbounds nuw i8, ptr %0, i64 16
  %60 = load ptr, ptr %59, align 8, !tbaa !4
  %.not28.i13 = icmp ult ptr %58, %60
  %.luaO_nilobject_.i14 = select i1 %.not28.i13, ptr %58, ptr @luaO_nilobject_
  br label %index2adr.exit15

61:                                               ; preds = %index2adr.exit
  %62 = icmp sgt i32 %2, -10000
  br i1 %62, label %63, label %68

63:                                               ; preds = %61
  %64 = getelementptr inbounds nuw i8, ptr %0, i64 16
  %65 = load ptr, ptr %64, align 8, !tbaa !4
  %66 = sext i32 %2 to i64
  %67 = getelementptr inbounds %struct.lua_TValue, ptr %65, i64 %66
  br label %index2adr.exit15

68:                                               ; preds = %61
  switch i32 %2, label %85 [
    i32 -10000, label %69
    i32 -10001, label %73
    i32 -10002, label %83
  ]

69:                                               ; preds = %68
  %70 = getelementptr inbounds nuw i8, ptr %0, i64 32
  %71 = load ptr, ptr %70, align 8, !tbaa !29
  %72 = getelementptr inbounds nuw i8, ptr %71, i64 160
  br label %index2adr.exit15

73:                                               ; preds = %68
  %74 = getelementptr inbounds nuw i8, ptr %0, i64 40
  %75 = load ptr, ptr %74, align 8, !tbaa !23
  %76 = getelementptr inbounds nuw i8, ptr %75, i64 8
  %77 = load ptr, ptr %76, align 8, !tbaa !41
  %78 = load ptr, ptr %77, align 8, !tbaa !19
  %79 = getelementptr inbounds nuw i8, ptr %0, i64 136
  %80 = getelementptr inbounds nuw i8, ptr %78, i64 24
  %81 = load ptr, ptr %80, align 8, !tbaa !19
  store ptr %81, ptr %79, align 8, !tbaa !19
  %82 = getelementptr inbounds nuw i8, ptr %0, i64 144
  store i32 5, ptr %82, align 8, !tbaa !20
  br label %index2adr.exit15

83:                                               ; preds = %68
  %84 = getelementptr inbounds nuw i8, ptr %0, i64 120
  br label %index2adr.exit15

85:                                               ; preds = %68
  %86 = getelementptr inbounds nuw i8, ptr %0, i64 40
  %87 = load ptr, ptr %86, align 8, !tbaa !23
  %88 = getelementptr inbounds nuw i8, ptr %87, i64 8
  %89 = load ptr, ptr %88, align 8, !tbaa !41
  %90 = load ptr, ptr %89, align 8, !tbaa !19
  %91 = sub nuw nsw i32 -10002, %2
  %92 = getelementptr inbounds nuw i8, ptr %90, i64 11
  %93 = load i8, ptr %92, align 1, !tbaa !19
  %94 = zext i8 %93 to i32
  %.not.i12 = icmp samesign ugt i32 %91, %94
  %95 = getelementptr inbounds nuw i8, ptr %90, i64 40
  %96 = sub nuw nsw i32 -10003, %2
  %97 = zext nneg i32 %96 to i64
  %98 = getelementptr inbounds nuw [1 x %struct.lua_TValue], ptr %95, i64 0, i64 %97
  %99 = select i1 %.not.i12, ptr @luaO_nilobject_, ptr %98
  br label %index2adr.exit15

index2adr.exit15:                                 ; preds = %53, %63, %69, %73, %83, %85
  %.1.i11 = phi ptr [ %.luaO_nilobject_.i14, %53 ], [ %67, %63 ], [ %99, %85 ], [ %84, %83 ], [ %79, %73 ], [ %72, %69 ]
  %100 = icmp eq ptr %.1.i, @luaO_nilobject_
  %101 = icmp eq ptr %.1.i11, @luaO_nilobject_
  %or.cond = select i1 %100, i1 true, i1 %101
  br i1 %or.cond, label %104, label %102

102:                                              ; preds = %index2adr.exit15
  %103 = tail call i32 @luaV_lessthan(ptr noundef %0, ptr noundef %.1.i, ptr noundef %.1.i11) #14
  br label %104

104:                                              ; preds = %index2adr.exit15, %102
  %105 = phi i32 [ %103, %102 ], [ 0, %index2adr.exit15 ]
  ret i32 %105
}